target datalayout = "e-m:e-p270:32:32-p271:32:32-p272:64:64-i64:64-i128:128-f80:128-n8:16:32:64-S128"
target triple = "x86_64-pc-linux-gnu"

%struct._zend_array = type { %struct._zend_refcounted_h, %union.anon.0, i32, %union.anon.1, i32, i32, i32, i32, i64, ptr }
%struct._zend_refcounted_h = type { i32, %union.anon }
%union.anon = type { i32 }
%union.anon.0 = type { i32 }
%union.anon.1 = type { ptr }
%struct._zend_llist = type { ptr, ptr, i64, i64, ptr, i8, ptr }
%struct._zval_struct = type { %union._zend_value, %union.anon.3, %union.anon.6 }
%union._zend_value = type { i64 }
%union.anon.3 = type { i32 }
%union.anon.6 = type { i32 }
%struct._sapi_globals_struct = type { ptr, %struct.sapi_request_info, %struct.sapi_headers_struct, i64, i8, i8, %struct.stat, ptr, ptr, ptr, i64, i32, i8, double, %struct._zend_array, %struct._zval_struct, %struct._zend_fcall_info_cache, %struct.sapi_request_parse_body_context }
%struct.sapi_request_info = type { ptr, ptr, ptr, i64, ptr, ptr, ptr, ptr, i8, i8, i8, ptr, ptr, ptr, ptr, ptr, ptr, ptr, i32, i32, ptr, i32 }
%struct.sapi_headers_struct = type { %struct._zend_llist, i32, i8, ptr, ptr }
%struct.stat = type { i64, i64, i64, i32, i32, i32, i32, i64, i64, i64, i64, %struct.timespec, %struct.timespec, %struct.timespec, [3 x i64] }
%struct.timespec = type { i64, i64 }
%struct._zend_fcall_info_cache = type { ptr, ptr, ptr, ptr, ptr }
%struct.sapi_request_parse_body_context = type { i8, [5 x %struct.anon.7] }
%struct.anon.7 = type { i8, i64 }
%struct._zend_string = type { %struct._zend_refcounted_h, i64, i64, [1 x i8] }

@sapi_globals = external global %struct._sapi_globals_struct, align 8
@.str.64 = private unnamed_addr constant [7 x i8] c"Basic \00", align 1
@.str.65 = private unnamed_addr constant [8 x i8] c"Digest \00", align 1

; Function Attrs: alwaysinline nounwind uwtable
define internal i32 @zval_gc_flags(i32 noundef %0) #5 {
  %2 = alloca i32, align 4
  store i32 %0, ptr %2, align 4, !tbaa !50
  %3 = load i32, ptr %2, align 4, !tbaa !50
  %4 = lshr i32 %3, 0
  %5 = and i32 %4, 1008
  ret i32 %5
}

; Function Attrs: alwaysinline nounwind uwtable
define internal void @zend_string_free(ptr noundef %0) #5 {
  %2 = alloca ptr, align 8
  store ptr %0, ptr %2, align 8, !tbaa !54
  %3 = load ptr, ptr %2, align 8, !tbaa !54
  %4 = getelementptr inbounds nuw %struct._zend_string, ptr %3, i32 0, i32 0
  %5 = getelementptr inbounds nuw %struct._zend_refcounted_h, ptr %4, i32 0, i32 1
  %6 = load i32, ptr %5, align 4, !tbaa !27
  %7 = call i32 @zval_gc_flags(i32 noundef %6)
  %8 = and i32 %7, 64
  %9 = icmp ne i32 %8, 0
  br i1 %9, label %23, label %10

10:                                               ; preds = %1
  %11 = load ptr, ptr %2, align 8, !tbaa !54
  %12 = getelementptr inbounds nuw %struct._zend_string, ptr %11, i32 0, i32 0
  %13 = getelementptr inbounds nuw %struct._zend_refcounted_h, ptr %12, i32 0, i32 1
  %14 = load i32, ptr %13, align 4, !tbaa !27
  %15 = call i32 @zval_gc_flags(i32 noundef %14)
  %16 = and i32 %15, 128
  %17 = icmp ne i32 %16, 0
  br i1 %17, label %18, label %20

18:                                               ; preds = %10
  %19 = load ptr, ptr %2, align 8, !tbaa !54
  call void @free(ptr noundef %19) #18
  br label %22

20:                                               ; preds = %10
  %21 = load ptr, ptr %2, align 8, !tbaa !54
  call void @_efree(ptr noundef %21)
  br label %22

22:                                               ; preds = %20, %18
  br label %23

23:                                               ; preds = %22, %1
  ret void
}

; Function Attrs: inlinehint nounwind uwtable
define internal ptr @php_base64_decode(ptr noundef %0, i64 noundef %1) #14 {
  %3 = alloca ptr, align 8
  %4 = alloca i64, align 8
  store ptr %0, ptr %3, align 8, !tbaa !14
  store i64 %1, ptr %4, align 8, !tbaa !15
  %5 = load ptr, ptr %3, align 8, !tbaa !14
  %6 = load i64, ptr %4, align 8, !tbaa !15
  %7 = call ptr @php_base64_decode_ex(ptr noundef %5, i64 noundef %6, i1 noundef zeroext false)
  ret ptr %7
}

; Function Attrs: nounwind uwtable
define dso_local i32 @php_handle_auth_data(ptr noundef %0) #1 {
  %2 = alloca ptr, align 8
  %3 = alloca i32, align 4
  %4 = alloca i64, align 8
  %5 = alloca ptr, align 8
  %6 = alloca ptr, align 8
  store ptr %0, ptr %2, align 8, !tbaa !14
  call void @llvm.lifetime.start.p0(i64 4, ptr %3) #18
  store i32 -1, ptr %3, align 4, !tbaa !50
  call void @llvm.lifetime.start.p0(i64 8, ptr %4) #18
  %7 = load ptr, ptr %2, align 8, !tbaa !14
  %8 = icmp ne ptr %7, null
  br i1 %8, label %9, label %12

9:                                                ; preds = %1
  %10 = load ptr, ptr %2, align 8, !tbaa !14
  %11 = call i64 @strlen(ptr noundef %10) #19
  br label %13

12:                                               ; preds = %1
  br label %13

13:                                               ; preds = %12, %9
  %14 = phi i64 [ %11, %9 ], [ 0, %12 ]
  store i64 %14, ptr %4, align 8, !tbaa !15
  %15 = load ptr, ptr %2, align 8, !tbaa !14
  %16 = icmp ne ptr %15, null
  br i1 %16, label %17, label %60

17:                                               ; preds = %13
  %18 = load i64, ptr %4, align 8, !tbaa !15
  %19 = icmp ugt i64 %18, 0
  br i1 %19, label %20, label %60

20:                                               ; preds = %17
  %21 = load ptr, ptr %2, align 8, !tbaa !14
  %22 = load i64, ptr %4, align 8, !tbaa !15
  %23 = call i32 @zend_binary_strncasecmp(ptr noundef %21, i64 noundef %22, ptr noundef @.str.64, i64 noundef 6, i64 noundef 6)
  %24 = icmp eq i32 %23, 0
  br i1 %24, label %25, label %60

25:                                               ; preds = %20
  call void @llvm.lifetime.start.p0(i64 8, ptr %5) #18
  call void @llvm.lifetime.start.p0(i64 8, ptr %6) #18
  %26 = load ptr, ptr %2, align 8, !tbaa !14
  %27 = getelementptr inbounds i8, ptr %26, i64 6
  %28 = load i64, ptr %4, align 8, !tbaa !15
  %29 = sub i64 %28, 6
  %30 = call ptr @php_base64_decode(ptr noundef %27, i64 noundef %29)
  store ptr %30, ptr %6, align 8, !tbaa !54
  %31 = load ptr, ptr %6, align 8, !tbaa !54
  %32 = icmp ne ptr %31, null
  br i1 %32, label %33, label %59

33:                                               ; preds = %25
  %34 = load ptr, ptr %6, align 8, !tbaa !54
  %35 = getelementptr inbounds nuw %struct._zend_string, ptr %34, i32 0, i32 3
  %36 = getelementptr inbounds [1 x i8], ptr %35, i64 0, i64 0
  %37 = call ptr @strchr(ptr noundef %36, i32 noundef 58) #19
  store ptr %37, ptr %5, align 8, !tbaa !14
  %38 = load ptr, ptr %5, align 8, !tbaa !14
  %39 = icmp ne ptr %38, null
  br i1 %39, label %40, label %57

40:                                               ; preds = %33
  %41 = load ptr, ptr %5, align 8, !tbaa !14
  %42 = getelementptr inbounds nuw i8, ptr %41, i32 1
  store ptr %42, ptr %5, align 8, !tbaa !14
  store i8 0, ptr %41, align 1, !tbaa !27
  %43 = load ptr, ptr %6, align 8, !tbaa !54
  %44 = getelementptr inbounds nuw %struct._zend_string, ptr %43, i32 0, i32 3
  %45 = getelementptr inbounds [1 x i8], ptr %44, i64 0, i64 0
  %46 = load ptr, ptr %6, align 8, !tbaa !54
  %47 = getelementptr inbounds nuw %struct._zend_string, ptr %46, i32 0, i32 2
  %48 = load i64, ptr %47, align 8, !tbaa !60
  %49 = call noalias ptr @_estrndup(ptr noundef %45, i64 noundef %48)
  store ptr %49, ptr getelementptr inbounds nuw (%struct.sapi_request_info, ptr getelementptr inbounds nuw (%struct._sapi_globals_struct, ptr @sapi_globals, i32 0, i32 1), i32 0, i32 13), align 8, !tbaa !235
  %50 = load ptr, ptr %5, align 8, !tbaa !14
  %51 = call i64 @strlen(ptr noundef %50) #19
  %52 = icmp ugt i64 %51, 0
  br i1 %52, label %53, label %56

53:                                               ; preds = %40
  %54 = load ptr, ptr %5, align 8, !tbaa !14
  %55 = call noalias ptr @_estrdup(ptr noundef %54)
  store ptr %55, ptr getelementptr inbounds nuw (%struct.sapi_request_info, ptr getelementptr inbounds nuw (%struct._sapi_globals_struct, ptr @sapi_globals, i32 0, i32 1), i32 0, i32 14), align 8, !tbaa !236
  br label %56

56:                                               ; preds = %53, %40
  store i32 0, ptr %3, align 4, !tbaa !50
  br label %57

57:                                               ; preds = %56, %33
  %58 = load ptr, ptr %6, align 8, !tbaa !54
  call void @zend_string_free(ptr noundef %58)
  br label %59

59:                                               ; preds = %57, %25
  call void @llvm.lifetime.end.p0(i64 8, ptr %6) #18
  call void @llvm.lifetime.end.p0(i64 8, ptr %5) #18
  br label %60

60:                                               ; preds = %59, %20, %17, %13
  %61 = load i32, ptr %3, align 4, !tbaa !50
  %62 = icmp eq i32 %61, -1
  br i1 %62, label %63, label %64

63:                                               ; preds = %60
  store ptr null, ptr getelementptr inbounds nuw (%struct.sapi_request_info, ptr getelementptr inbounds nuw (%struct._sapi_globals_struct, ptr @sapi_globals, i32 0, i32 1), i32 0, i32 14), align 8, !tbaa !236
  store ptr null, ptr getelementptr inbounds nuw (%struct.sapi_request_info, ptr getelementptr inbounds nuw (%struct._sapi_globals_struct, ptr @sapi_globals, i32 0, i32 1), i32 0, i32 13), align 8, !tbaa !235
  br label %65

64:                                               ; preds = %60
  store ptr null, ptr getelementptr inbounds nuw (%struct.sapi_request_info, ptr getelementptr inbounds nuw (%struct._sapi_globals_struct, ptr @sapi_globals, i32 0, i32 1), i32 0, i32 15), align 8, !tbaa !237
  br label %65

65:                                               ; preds = %64, %63
  %66 = load i32, ptr %3, align 4, !tbaa !50
  %67 = icmp eq i32 %66, -1
  br i1 %67, label %68, label %83

68:                                               ; preds = %65
  %69 = load ptr, ptr %2, align 8, !tbaa !14
  %70 = icmp ne ptr %69, null
  br i1 %70, label %71, label %83

71:                                               ; preds = %68
  %72 = load i64, ptr %4, align 8, !tbaa !15
  %73 = icmp ugt i64 %72, 0
  br i1 %73, label %74, label %83

74:                                               ; preds = %71
  %75 = load ptr, ptr %2, align 8, !tbaa !14
  %76 = load i64, ptr %4, align 8, !tbaa !15
  %77 = call i32 @zend_binary_strncasecmp(ptr noundef %75, i64 noundef %76, ptr noundef @.str.65, i64 noundef 7, i64 noundef 7)
  %78 = icmp eq i32 %77, 0
  br i1 %78, label %79, label %83

79:                                               ; preds = %74
  %80 = load ptr, ptr %2, align 8, !tbaa !14
  %81 = getelementptr inbounds i8, ptr %80, i64 7
  %82 = call noalias ptr @_estrdup(ptr noundef %81)
  store ptr %82, ptr getelementptr inbounds nuw (%struct.sapi_request_info, ptr getelementptr inbounds nuw (%struct._sapi_globals_struct, ptr @sapi_globals, i32 0, i32 1), i32 0, i32 15), align 8, !tbaa !237
  store i32 0, ptr %3, align 4, !tbaa !50
  br label %83

83:                                               ; preds = %79, %74, %71, %68, %65
  %84 = load i32, ptr %3, align 4, !tbaa !50
  %85 = icmp eq i32 %84, -1
  br i1 %85, label %86, label %87

86:                                               ; preds = %83
  store ptr null, ptr getelementptr inbounds nuw (%struct.sapi_request_info, ptr getelementptr inbounds nuw (%struct._sapi_globals_struct, ptr @sapi_globals, i32 0, i32 1), i32 0, i32 15), align 8, !tbaa !237
  br label %87

87:                                               ; preds = %86, %83
  %88 = load i32, ptr %3, align 4, !tbaa !50
  call void @llvm.lifetime.end.p0(i64 8, ptr %4) #18
  call void @llvm.lifetime.end.p0(i64 4, ptr %3) #18
  ret i32 %88
}