; Function Attrs: nounwind uwtable
define dso_local range(i32 -1, 1) i32 @php_handle_auth_data(ptr noundef %0) local_unnamed_addr #2 {
  %.not55 = icmp eq ptr %0, null
  br i1 %.not55, label %.sink.split, label %2

2:                                                ; preds = %1
  %3 = tail call i64 @strlen(ptr noundef nonnull dereferenceable(1) %0) #29
  %.not56.not = icmp eq i64 %3, 0
  br i1 %.not56.not, label %.sink.split, label %4

4:                                                ; preds = %2
  %5 = tail call i32 @zend_binary_strncasecmp(ptr noundef nonnull %0, i64 noundef %3, ptr noundef nonnull @.str.64, i64 noundef 6, i64 noundef 6) #28
  %6 = icmp eq i32 %5, 0
  br i1 %6, label %7, label %29

7:                                                ; preds = %4
  %8 = getelementptr inbounds nuw i8, ptr %0, i64 6
  %9 = add i64 %3, -6
  %10 = tail call ptr @php_base64_decode_ex(ptr noundef nonnull %8, i64 noundef range(i64 -5, -6) %9, i1 noundef zeroext false) #28
  %.not = icmp eq ptr %10, null
  br i1 %.not, label %29, label %11

11:                                               ; preds = %7
  %12 = getelementptr inbounds nuw i8, ptr %10, i64 24
  %13 = tail call ptr @strchr(ptr noundef nonnull dereferenceable(1) %12, i32 noundef 58) #29
  %.not37 = icmp eq ptr %13, null
  br i1 %.not37, label %21, label %14

14:                                               ; preds = %11
  %15 = getelementptr inbounds nuw i8, ptr %13, i64 1
  store i8 0, ptr %13, align 1, !tbaa !24
  %16 = getelementptr inbounds nuw i8, ptr %10, i64 16
  %17 = load i64, ptr %16, align 8, !tbaa !52
  %18 = tail call noalias ptr @_estrndup(ptr noundef nonnull %12, i64 noundef %17) #28
  store ptr %18, ptr getelementptr inbounds nuw (i8, ptr @sapi_globals, i64 96), align 8, !tbaa !210
  %char0 = load i8, ptr %15, align 1
  %.not38 = icmp eq i8 %char0, 0
  br i1 %.not38, label %21, label %19

19:                                               ; preds = %14
  %20 = tail call noalias ptr @_estrdup(ptr noundef nonnull %15) #28
  store ptr %20, ptr getelementptr inbounds nuw (i8, ptr @sapi_globals, i64 104), align 8, !tbaa !211
  br label %21

21:                                               ; preds = %14, %19, %11
  %22 = getelementptr inbounds nuw i8, ptr %10, i64 4
  %23 = load i32, ptr %22, align 4, !tbaa !24
  %24 = and i32 %23, 64
  %.not.i = icmp eq i32 %24, 0
  br i1 %.not.i, label %25, label %zend_string_free.exit

25:                                               ; preds = %21
  %26 = and i32 %23, 128
  %.not4.i = icmp eq i32 %26, 0
  br i1 %.not4.i, label %28, label %27

27:                                               ; preds = %25
  tail call void @free(ptr noundef nonnull %10) #28
  br label %zend_string_free.exit

28:                                               ; preds = %25
  tail call void @_efree(ptr noundef nonnull %10) #28
  br label %zend_string_free.exit

zend_string_free.exit:                            ; preds = %28, %27, %21
  br i1 %.not37, label %29, label %.thread44

29:                                               ; preds = %7, %4, %zend_string_free.exit
  tail call void @llvm.memset.p0.i64(ptr noundef nonnull align 8 dereferenceable(16) getelementptr inbounds nuw (i8, ptr @sapi_globals, i64 96), i8 0, i64 16, i1 false)
  %30 = tail call i32 @zend_binary_strncasecmp(ptr noundef nonnull %0, i64 noundef %3, ptr noundef nonnull @.str.65, i64 noundef 7, i64 noundef 7) #28
  %31 = icmp eq i32 %30, 0
  br i1 %31, label %32, label %.thread44

32:                                               ; preds = %29
  %33 = getelementptr inbounds nuw i8, ptr %0, i64 7
  %34 = tail call noalias ptr @_estrdup(ptr noundef nonnull %33) #28
  br label %.thread44

.sink.split:                                      ; preds = %2, %1
  tail call void @llvm.memset.p0.i64(ptr noundef nonnull align 8 dereferenceable(16) getelementptr inbounds nuw (i8, ptr @sapi_globals, i64 96), i8 0, i64 16, i1 false)
  br label %.thread44

.thread44:                                        ; preds = %29, %.sink.split, %zend_string_free.exit, %32
  %.sink = phi ptr [ %34, %32 ], [ null, %zend_string_free.exit ], [ null, %.sink.split ], [ null, %29 ]
  %.350 = phi i32 [ 0, %32 ], [ 0, %zend_string_free.exit ], [ -1, %.sink.split ], [ -1, %29 ]
  store ptr %.sink, ptr getelementptr inbounds nuw (i8, ptr @sapi_globals, i64 112), align 8, !tbaa !212
  ret i32 %.350
}